target datalayout = "e-m:e-p270:32:32-p271:32:32-p272:64:64-i64:64-i128:128-f80:128-n8:16:32:64-S128"
target triple = "x86_64-pc-linux-gnu"

%struct.RelationData = type { %struct.RelFileLocator, ptr, i32, i32, i8, i8, i8, i8, i8, i32, i32, i32, i32, ptr, ptr, i32, %struct.LockInfoData, ptr, ptr, ptr, ptr, ptr, i8, ptr, ptr, ptr, ptr, ptr, ptr, i32, ptr, i8, ptr, ptr, i32, i8, i32, ptr, i8, ptr, ptr, ptr, ptr, ptr, ptr, ptr, i32, ptr, ptr, ptr, ptr, ptr, ptr, ptr, ptr, ptr, ptr, ptr, ptr, ptr, ptr, ptr, ptr, ptr, ptr, ptr, i32, i8, ptr }
%struct.RelFileLocator = type { i32, i32, i32 }
%struct.LockInfoData = type { %struct.LockRelId }
%struct.LockRelId = type { i32, i32 }
%struct.ObjectAddress = type { i32, i32, i32 }

; Function Attrs: inlinehint nounwind uwtable
define internal i64 @Int16GetDatum(i16 noundef signext %0) #5 {
  %2 = alloca i16, align 2
  store i16 %0, ptr %2, align 2
  %3 = load i16, ptr %2, align 2
  %4 = sext i16 %3 to i64
  ret i64 %4
}

; Function Attrs: inlinehint nounwind uwtable
define internal i64 @CharGetDatum(i8 noundef signext %0) #5 {
  %2 = alloca i8, align 1
  store i8 %0, ptr %2, align 1
  %3 = load i8, ptr %2, align 1
  %4 = sext i8 %3 to i64
  ret i64 %4
}

; Function Attrs: inlinehint nounwind uwtable
define internal i64 @ObjectIdGetDatum(i32 noundef %0) #5 {
  %2 = alloca i32, align 4
  store i32 %0, ptr %2, align 4
  %3 = load i32, ptr %2, align 4
  %4 = zext i32 %3 to i64
  ret i64 %4
}

; Function Attrs: inlinehint nounwind uwtable
define internal i64 @PointerGetDatum(ptr noundef %0) #5 {
  %2 = alloca ptr, align 8
  store ptr %0, ptr %2, align 8
  %3 = load ptr, ptr %2, align 8
  %4 = ptrtoint ptr %3 to i64
  ret i64 %4
}

; Function Attrs: nounwind uwtable
define dso_local void @StorePartitionKey(ptr noundef %0, i8 noundef signext %1, i16 noundef signext %2, ptr noundef %3, ptr noundef %4, ptr noundef %5, ptr noundef %6) #0 {
  %8 = alloca ptr, align 8
  %9 = alloca i8, align 1
  %10 = alloca i16, align 2
  %11 = alloca ptr, align 8
  %12 = alloca ptr, align 8
  %13 = alloca ptr, align 8
  %14 = alloca ptr, align 8
  %15 = alloca i32, align 4
  %16 = alloca ptr, align 8
  %17 = alloca ptr, align 8
  %18 = alloca ptr, align 8
  %19 = alloca i64, align 8
  %20 = alloca ptr, align 8
  %21 = alloca ptr, align 8
  %22 = alloca [8 x i64], align 16
  %23 = alloca [8 x i8], align 1
  %24 = alloca %struct.ObjectAddress, align 4
  %25 = alloca %struct.ObjectAddress, align 4
  %26 = alloca ptr, align 8
  %27 = alloca ptr, align 8
  store ptr %0, ptr %8, align 8
  store i8 %1, ptr %9, align 1
  store i16 %2, ptr %10, align 2
  store ptr %3, ptr %11, align 8
  store ptr %4, ptr %12, align 8
  store ptr %5, ptr %13, align 8
  store ptr %6, ptr %14, align 8
  call void @llvm.lifetime.start.p0(i64 4, ptr %15) #10
  call void @llvm.lifetime.start.p0(i64 8, ptr %16) #10
  call void @llvm.lifetime.start.p0(i64 8, ptr %17) #10
  call void @llvm.lifetime.start.p0(i64 8, ptr %18) #10
  call void @llvm.lifetime.start.p0(i64 8, ptr %19) #10
  call void @llvm.lifetime.start.p0(i64 8, ptr %20) #10
  call void @llvm.lifetime.start.p0(i64 8, ptr %21) #10
  call void @llvm.lifetime.start.p0(i64 64, ptr %22) #10
  call void @llvm.lifetime.start.p0(i64 8, ptr %23) #10
  call void @llvm.memset.p0.i64(ptr align 1 %23, i8 0, i64 8, i1 false)
  call void @llvm.lifetime.start.p0(i64 12, ptr %24) #10
  call void @llvm.lifetime.start.p0(i64 12, ptr %25) #10
  call void @llvm.lifetime.start.p0(i64 8, ptr %26) #10
  %28 = load ptr, ptr %11, align 8
  %29 = load i16, ptr %10, align 2
  %30 = sext i16 %29 to i32
  %31 = call ptr @buildint2vector(ptr noundef %28, i32 noundef %30)
  store ptr %31, ptr %16, align 8
  %32 = load ptr, ptr %13, align 8
  %33 = load i16, ptr %10, align 2
  %34 = sext i16 %33 to i32
  %35 = call ptr @buildoidvector(ptr noundef %32, i32 noundef %34)
  store ptr %35, ptr %17, align 8
  %36 = load ptr, ptr %14, align 8
  %37 = load i16, ptr %10, align 2
  %38 = sext i16 %37 to i32
  %39 = call ptr @buildoidvector(ptr noundef %36, i32 noundef %38)
  store ptr %39, ptr %18, align 8
  %40 = load ptr, ptr %12, align 8
  %41 = icmp ne ptr %40, null
  br i1 %41, label %42, label %49

42:                                               ; preds = %7
  call void @llvm.lifetime.start.p0(i64 8, ptr %27) #10
  %43 = load ptr, ptr %12, align 8
  %44 = call ptr @nodeToString(ptr noundef %43)
  store ptr %44, ptr %27, align 8
  %45 = load ptr, ptr %27, align 8
  %46 = call ptr @cstring_to_text(ptr noundef %45)
  %47 = call i64 @PointerGetDatum(ptr noundef %46)
  store i64 %47, ptr %19, align 8
  %48 = load ptr, ptr %27, align 8
  call void @pfree(ptr noundef %48)
  call void @llvm.lifetime.end.p0(i64 8, ptr %27) #10
  br label %50

49:                                               ; preds = %7
  store i64 0, ptr %19, align 8
  br label %50

50:                                               ; preds = %49, %42
  %51 = call ptr @table_open(i32 noundef 3350, i32 noundef 3)
  store ptr %51, ptr %20, align 8
  %52 = load i64, ptr %19, align 8
  %53 = icmp ne i64 %52, 0
  br i1 %53, label %56, label %54

54:                                               ; preds = %50
  %55 = getelementptr inbounds [8 x i8], ptr %23, i64 0, i64 7
  store i8 1, ptr %55, align 1
  br label %56

56:                                               ; preds = %54, %50
  %57 = load ptr, ptr %8, align 8
  %58 = getelementptr inbounds nuw %struct.RelationData, ptr %57, i32 0, i32 15
  %59 = load i32, ptr %58, align 8
  %60 = call i64 @ObjectIdGetDatum(i32 noundef %59)
  %61 = getelementptr inbounds [8 x i64], ptr %22, i64 0, i64 0
  store i64 %60, ptr %61, align 16
  %62 = load i8, ptr %9, align 1
  %63 = call i64 @CharGetDatum(i8 noundef signext %62)
  %64 = getelementptr inbounds [8 x i64], ptr %22, i64 0, i64 1
  store i64 %63, ptr %64, align 8
  %65 = load i16, ptr %10, align 2
  %66 = call i64 @Int16GetDatum(i16 noundef signext %65)
  %67 = getelementptr inbounds [8 x i64], ptr %22, i64 0, i64 2
  store i64 %66, ptr %67, align 16
  %68 = call i64 @ObjectIdGetDatum(i32 noundef 0)
  %69 = getelementptr inbounds [8 x i64], ptr %22, i64 0, i64 3
  store i64 %68, ptr %69, align 8
  %70 = load ptr, ptr %16, align 8
  %71 = call i64 @PointerGetDatum(ptr noundef %70)
  %72 = getelementptr inbounds [8 x i64], ptr %22, i64 0, i64 4
  store i64 %71, ptr %72, align 16
  %73 = load ptr, ptr %17, align 8
  %74 = call i64 @PointerGetDatum(ptr noundef %73)
  %75 = getelementptr inbounds [8 x i64], ptr %22, i64 0, i64 5
  store i64 %74, ptr %75, align 8
  %76 = load ptr, ptr %18, align 8
  %77 = call i64 @PointerGetDatum(ptr noundef %76)
  %78 = getelementptr inbounds [8 x i64], ptr %22, i64 0, i64 6
  store i64 %77, ptr %78, align 16
  %79 = load i64, ptr %19, align 8
  %80 = getelementptr inbounds [8 x i64], ptr %22, i64 0, i64 7
  store i64 %79, ptr %80, align 8
  %81 = load ptr, ptr %20, align 8
  %82 = getelementptr inbounds nuw %struct.RelationData, ptr %81, i32 0, i32 14
  %83 = load ptr, ptr %82, align 8
  %84 = getelementptr inbounds [8 x i64], ptr %22, i64 0, i64 0
  %85 = getelementptr inbounds [8 x i8], ptr %23, i64 0, i64 0
  %86 = call ptr @heap_form_tuple(ptr noundef %83, ptr noundef %84, ptr noundef %85)
  store ptr %86, ptr %21, align 8
  %87 = load ptr, ptr %20, align 8
  %88 = load ptr, ptr %21, align 8
  call void @CatalogTupleInsert(ptr noundef %87, ptr noundef %88)
  %89 = load ptr, ptr %20, align 8
  call void @table_close(ptr noundef %89, i32 noundef 3)
  %90 = call ptr @new_object_addresses()
  store ptr %90, ptr %26, align 8
  br label %91

91:                                               ; preds = %56
  %92 = getelementptr inbounds nuw %struct.ObjectAddress, ptr %24, i32 0, i32 0
  store i32 1259, ptr %92, align 4
  %93 = load ptr, ptr %8, align 8
  %94 = getelementptr inbounds nuw %struct.RelationData, ptr %93, i32 0, i32 15
  %95 = load i32, ptr %94, align 8
  %96 = getelementptr inbounds nuw %struct.ObjectAddress, ptr %24, i32 0, i32 1
  store i32 %95, ptr %96, align 4
  %97 = getelementptr inbounds nuw %struct.ObjectAddress, ptr %24, i32 0, i32 2
  store i32 0, ptr %97, align 4
  br label %98

98:                                               ; preds = %91
  br label %99

99:                                               ; preds = %98
  store i32 0, ptr %15, align 4
  br label %100

100:                                              ; preds = %145, %99
  %101 = load i32, ptr %15, align 4
  %102 = load i16, ptr %10, align 2
  %103 = sext i16 %102 to i32
  %104 = icmp slt i32 %101, %103
  br i1 %104, label %105, label %148

105:                                              ; preds = %100
  br label %106

106:                                              ; preds = %105
  %107 = getelementptr inbounds nuw %struct.ObjectAddress, ptr %25, i32 0, i32 0
  store i32 2616, ptr %107, align 4
  %108 = load ptr, ptr %13, align 8
  %109 = load i32, ptr %15, align 4
  %110 = sext i32 %109 to i64
  %111 = getelementptr inbounds i32, ptr %108, i64 %110
  %112 = load i32, ptr %111, align 4
  %113 = getelementptr inbounds nuw %struct.ObjectAddress, ptr %25, i32 0, i32 1
  store i32 %112, ptr %113, align 4
  %114 = getelementptr inbounds nuw %struct.ObjectAddress, ptr %25, i32 0, i32 2
  store i32 0, ptr %114, align 4
  br label %115

115:                                              ; preds = %106
  br label %116

116:                                              ; preds = %115
  %117 = load ptr, ptr %26, align 8
  call void @add_exact_object_address(ptr noundef %25, ptr noundef %117)
  %118 = load ptr, ptr %14, align 8
  %119 = load i32, ptr %15, align 4
  %120 = sext i32 %119 to i64
  %121 = getelementptr inbounds i32, ptr %118, i64 %120
  %122 = load i32, ptr %121, align 4
  %123 = icmp ne i32 %122, 0
  br i1 %123, label %124, label %144

124:                                              ; preds = %116
  %125 = load ptr, ptr %14, align 8
  %126 = load i32, ptr %15, align 4
  %127 = sext i32 %126 to i64
  %128 = getelementptr inbounds i32, ptr %125, i64 %127
  %129 = load i32, ptr %128, align 4
  %130 = icmp ne i32 %129, 100
  br i1 %130, label %131, label %144

131:                                              ; preds = %124
  br label %132

132:                                              ; preds = %131
  %133 = getelementptr inbounds nuw %struct.ObjectAddress, ptr %25, i32 0, i32 0
  store i32 3456, ptr %133, align 4
  %134 = load ptr, ptr %14, align 8
  %135 = load i32, ptr %15, align 4
  %136 = sext i32 %135 to i64
  %137 = getelementptr inbounds i32, ptr %134, i64 %136
  %138 = load i32, ptr %137, align 4
  %139 = getelementptr inbounds nuw %struct.ObjectAddress, ptr %25, i32 0, i32 1
  store i32 %138, ptr %139, align 4
  %140 = getelementptr inbounds nuw %struct.ObjectAddress, ptr %25, i32 0, i32 2
  store i32 0, ptr %140, align 4
  br label %141

141:                                              ; preds = %132
  br label %142

142:                                              ; preds = %141
  %143 = load ptr, ptr %26, align 8
  call void @add_exact_object_address(ptr noundef %25, ptr noundef %143)
  br label %144

144:                                              ; preds = %142, %124, %116
  br label %145

145:                                              ; preds = %144
  %146 = load i32, ptr %15, align 4
  %147 = add i32 %146, 1
  store i32 %147, ptr %15, align 4
  br label %100, !llvm.loop !50

148:                                              ; preds = %100
  %149 = load ptr, ptr %26, align 8
  call void @record_object_address_dependencies(ptr noundef %24, ptr noundef %149, i32 noundef 110)
  %150 = load ptr, ptr %26, align 8
  call void @free_object_addresses(ptr noundef %150)
  store i32 0, ptr %15, align 4
  br label %151

151:                                              ; preds = %181, %148
  %152 = load i32, ptr %15, align 4
  %153 = load i16, ptr %10, align 2
  %154 = sext i16 %153 to i32
  %155 = icmp slt i32 %152, %154
  br i1 %155, label %156, label %184

156:                                              ; preds = %151
  %157 = load ptr, ptr %11, align 8
  %158 = load i32, ptr %15, align 4
  %159 = sext i32 %158 to i64
  %160 = getelementptr inbounds i16, ptr %157, i64 %159
  %161 = load i16, ptr %160, align 2
  %162 = sext i16 %161 to i32
  %163 = icmp eq i32 %162, 0
  br i1 %163, label %164, label %165

164:                                              ; preds = %156
  br label %181

165:                                              ; preds = %156
  br label %166

166:                                              ; preds = %165
  %167 = getelementptr inbounds nuw %struct.ObjectAddress, ptr %25, i32 0, i32 0
  store i32 1259, ptr %167, align 4
  %168 = load ptr, ptr %8, align 8
  %169 = getelementptr inbounds nuw %struct.RelationData, ptr %168, i32 0, i32 15
  %170 = load i32, ptr %169, align 8
  %171 = getelementptr inbounds nuw %struct.ObjectAddress, ptr %25, i32 0, i32 1
  store i32 %170, ptr %171, align 4
  %172 = load ptr, ptr %11, align 8
  %173 = load i32, ptr %15, align 4
  %174 = sext i32 %173 to i64
  %175 = getelementptr inbounds i16, ptr %172, i64 %174
  %176 = load i16, ptr %175, align 2
  %177 = sext i16 %176 to i32
  %178 = getelementptr inbounds nuw %struct.ObjectAddress, ptr %25, i32 0, i32 2
  store i32 %177, ptr %178, align 4
  br label %179

179:                                              ; preds = %166
  br label %180

180:                                              ; preds = %179
  call void @recordDependencyOn(ptr noundef %25, ptr noundef %24, i32 noundef 105)
  br label %181

181:                                              ; preds = %180, %164
  %182 = load i32, ptr %15, align 4
  %183 = add i32 %182, 1
  store i32 %183, ptr %15, align 4
  br label %151, !llvm.loop !51

184:                                              ; preds = %151
  %185 = load ptr, ptr %12, align 8
  %186 = icmp ne ptr %185, null
  br i1 %186, label %187, label %192

187:                                              ; preds = %184
  %188 = load ptr, ptr %12, align 8
  %189 = load ptr, ptr %8, align 8
  %190 = getelementptr inbounds nuw %struct.RelationData, ptr %189, i32 0, i32 15
  %191 = load i32, ptr %190, align 8
  call void @recordDependencyOnSingleRelExpr(ptr noundef %24, ptr noundef %188, i32 noundef %191, i32 noundef 110, i32 noundef 105, i1 noundef zeroext true)
  br label %192

192:                                              ; preds = %187, %184
  %193 = load ptr, ptr %8, align 8
  call void @CacheInvalidateRelcache(ptr noundef %193)
  call void @llvm.lifetime.end.p0(i64 8, ptr %26) #10
  call void @llvm.lifetime.end.p0(i64 12, ptr %25) #10
  call void @llvm.lifetime.end.p0(i64 12, ptr %24) #10
  call void @llvm.lifetime.end.p0(i64 8, ptr %23) #10
  call void @llvm.lifetime.end.p0(i64 64, ptr %22) #10
  call void @llvm.lifetime.end.p0(i64 8, ptr %21) #10
  call void @llvm.lifetime.end.p0(i64 8, ptr %20) #10
  call void @llvm.lifetime.end.p0(i64 8, ptr %19) #10
  call void @llvm.lifetime.end.p0(i64 8, ptr %18) #10
  call void @llvm.lifetime.end.p0(i64 8, ptr %17) #10
  call void @llvm.lifetime.end.p0(i64 8, ptr %16) #10
  call void @llvm.lifetime.end.p0(i64 4, ptr %15) #10
  ret void
}