; Function Attrs: nounwind uwtable
define dso_local void @StorePartitionKey(ptr noundef %0, i8 noundef signext %1, i16 noundef signext %2, ptr noundef %3, ptr noundef %4, ptr noundef %5, ptr noundef %6) local_unnamed_addr #0 {
  %8 = alloca [8 x i64], align 16
  %9 = alloca [8 x i8], align 8
  %10 = alloca %struct.ObjectAddress, align 4
  %11 = alloca %struct.ObjectAddress, align 4
  call void @llvm.lifetime.start.p0(i64 64, ptr nonnull %8) #11
  call void @llvm.lifetime.start.p0(i64 8, ptr nonnull %9) #11
  store i64 0, ptr %9, align 8
  call void @llvm.lifetime.start.p0(i64 12, ptr nonnull %10) #11
  call void @llvm.lifetime.start.p0(i64 12, ptr nonnull %11) #11
  %12 = sext i16 %2 to i32
  %13 = tail call ptr @buildint2vector(ptr noundef %3, i32 noundef %12) #11
  %14 = tail call ptr @buildoidvector(ptr noundef %5, i32 noundef %12) #11
  %15 = tail call ptr @buildoidvector(ptr noundef %6, i32 noundef %12) #11
  %.not = icmp eq ptr %4, null
  br i1 %.not, label %.thread, label %17

.thread:                                          ; preds = %7
  %16 = tail call ptr @table_open(i32 noundef 3350, i32 noundef 3) #11
  br label %22

17:                                               ; preds = %7
  %18 = tail call ptr @nodeToString(ptr noundef nonnull %4) #11
  %19 = tail call ptr @cstring_to_text(ptr noundef %18) #11
  %20 = ptrtoint ptr %19 to i64
  tail call void @pfree(ptr noundef %18) #11
  %21 = tail call ptr @table_open(i32 noundef 3350, i32 noundef 3) #11
  %.not54 = icmp eq ptr %19, null
  br i1 %.not54, label %22, label %25

22:                                               ; preds = %.thread, %17
  %23 = phi ptr [ %16, %.thread ], [ %21, %17 ]
  %24 = getelementptr inbounds nuw i8, ptr %9, i64 7
  store i8 1, ptr %24, align 1
  br label %25

25:                                               ; preds = %22, %17
  %26 = phi ptr [ %23, %22 ], [ %21, %17 ]
  %.04959 = phi i64 [ 0, %22 ], [ %20, %17 ]
  %27 = getelementptr inbounds nuw i8, ptr %0, i64 72
  %28 = load i32, ptr %27, align 8
  %29 = zext i32 %28 to i64
  store i64 %29, ptr %8, align 16
  %30 = sext i8 %1 to i64
  %31 = getelementptr inbounds nuw i8, ptr %8, i64 8
  store i64 %30, ptr %31, align 8
  %32 = sext i16 %2 to i64
  %33 = getelementptr inbounds nuw i8, ptr %8, i64 16
  store i64 %32, ptr %33, align 16
  %34 = getelementptr inbounds nuw i8, ptr %8, i64 24
  store i64 0, ptr %34, align 8
  %35 = ptrtoint ptr %13 to i64
  %36 = getelementptr inbounds nuw i8, ptr %8, i64 32
  store i64 %35, ptr %36, align 16
  %37 = ptrtoint ptr %14 to i64
  %38 = getelementptr inbounds nuw i8, ptr %8, i64 40
  store i64 %37, ptr %38, align 8
  %39 = ptrtoint ptr %15 to i64
  %40 = getelementptr inbounds nuw i8, ptr %8, i64 48
  store i64 %39, ptr %40, align 16
  %41 = getelementptr inbounds nuw i8, ptr %8, i64 56
  store i64 %.04959, ptr %41, align 8
  %42 = getelementptr inbounds nuw i8, ptr %26, i64 64
  %43 = load ptr, ptr %42, align 8
  %44 = call ptr @heap_form_tuple(ptr noundef %43, ptr noundef nonnull %8, ptr noundef nonnull %9) #11
  call void @CatalogTupleInsert(ptr noundef %26, ptr noundef %44) #11
  call void @table_close(ptr noundef %26, i32 noundef 3) #11
  %45 = call ptr @new_object_addresses() #11
  store i32 1259, ptr %10, align 4
  %46 = load i32, ptr %27, align 8
  %47 = getelementptr inbounds nuw i8, ptr %10, i64 4
  store i32 %46, ptr %47, align 4
  %48 = getelementptr inbounds nuw i8, ptr %10, i64 8
  store i32 0, ptr %48, align 4
  %49 = icmp sgt i16 %2, 0
  br i1 %49, label %.lr.ph, label %._crit_edge65.critedge

.lr.ph:                                           ; preds = %25
  %50 = getelementptr inbounds nuw i8, ptr %11, i64 4
  %51 = getelementptr inbounds nuw i8, ptr %11, i64 8
  %wide.trip.count = zext nneg i32 %12 to i64
  br label %52

52:                                               ; preds = %.lr.ph, %58
  %indvars.iv = phi i64 [ 0, %.lr.ph ], [ %indvars.iv.next, %58 ]
  store i32 2616, ptr %11, align 4
  %53 = getelementptr inbounds nuw i32, ptr %5, i64 %indvars.iv
  %54 = load i32, ptr %53, align 4
  store i32 %54, ptr %50, align 4
  store i32 0, ptr %51, align 4
  call void @add_exact_object_address(ptr noundef nonnull %11, ptr noundef %45) #11
  %55 = getelementptr inbounds nuw i32, ptr %6, i64 %indvars.iv
  %56 = load i32, ptr %55, align 4
  switch i32 %56, label %57 [
    i32 0, label %58
    i32 100, label %58
  ]

57:                                               ; preds = %52
  store i32 3456, ptr %11, align 4
  store i32 %56, ptr %50, align 4
  store i32 0, ptr %51, align 4
  call void @add_exact_object_address(ptr noundef nonnull %11, ptr noundef %45) #11
  br label %58

58:                                               ; preds = %52, %52, %57
  %indvars.iv.next = add nuw nsw i64 %indvars.iv, 1
  %exitcond.not = icmp eq i64 %indvars.iv.next, %wide.trip.count
  br i1 %exitcond.not, label %._crit_edge, label %52, !llvm.loop !35

._crit_edge:                                      ; preds = %58
  call void @record_object_address_dependencies(ptr noundef nonnull %10, ptr noundef %45, i32 noundef 110) #11
  call void @free_object_addresses(ptr noundef %45) #11
  %59 = getelementptr inbounds nuw i8, ptr %11, i64 4
  %60 = getelementptr inbounds nuw i8, ptr %11, i64 8
  %wide.trip.count70 = zext nneg i32 %12 to i64
  br label %61

61:                                               ; preds = %._crit_edge, %68
  %indvars.iv67 = phi i64 [ 0, %._crit_edge ], [ %indvars.iv.next68, %68 ]
  %62 = getelementptr inbounds nuw i16, ptr %3, i64 %indvars.iv67
  %63 = load i16, ptr %62, align 2
  %64 = icmp eq i16 %63, 0
  br i1 %64, label %68, label %65

65:                                               ; preds = %61
  store i32 1259, ptr %11, align 4
  %66 = load i32, ptr %27, align 8
  store i32 %66, ptr %59, align 4
  %67 = sext i16 %63 to i32
  store i32 %67, ptr %60, align 4
  call void @recordDependencyOn(ptr noundef nonnull %11, ptr noundef nonnull %10, i32 noundef 105) #11
  br label %68

68:                                               ; preds = %61, %65
  %indvars.iv.next68 = add nuw nsw i64 %indvars.iv67, 1
  %exitcond71.not = icmp eq i64 %indvars.iv.next68, %wide.trip.count70
  br i1 %exitcond71.not, label %._crit_edge65, label %61, !llvm.loop !36

._crit_edge65.critedge:                           ; preds = %25
  call void @record_object_address_dependencies(ptr noundef nonnull %10, ptr noundef %45, i32 noundef 110) #11
  call void @free_object_addresses(ptr noundef %45) #11
  br label %._crit_edge65

._crit_edge65:                                    ; preds = %68, %._crit_edge65.critedge
  br i1 %.not, label %71, label %69

69:                                               ; preds = %._crit_edge65
  %70 = load i32, ptr %27, align 8
  call void @recordDependencyOnSingleRelExpr(ptr noundef nonnull %10, ptr noundef nonnull %4, i32 noundef %70, i32 noundef 110, i32 noundef 105, i1 noundef zeroext true) #11
  br label %71

71:                                               ; preds = %69, %._crit_edge65
  call void @CacheInvalidateRelcache(ptr noundef %0) #11
  call void @llvm.lifetime.end.p0(i64 12, ptr nonnull %11) #11
  call void @llvm.lifetime.end.p0(i64 12, ptr nonnull %10) #11
  call void @llvm.lifetime.end.p0(i64 8, ptr nonnull %9) #11
  call void @llvm.lifetime.end.p0(i64 64, ptr nonnull %8) #11
  ret void
}